target datalayout = "e-m:e-p270:32:32-p271:32:32-p272:64:64-i64:64-i128:128-f80:128-n8:16:32:64-S128"
target triple = "x86_64-pc-linux-gnu"

@config_file = internal global ptr null, align 8
@.str.33 = private unnamed_addr constant [38 x i8] c"../openssl/test/evp_fetch_prov_test.c\00", align 1
@.str.34 = private unnamed_addr constant [4 x i8] c"ctx\00", align 1
@.str.35 = private unnamed_addr constant [43 x i8] c"OSSL_LIB_CTX_load_config(ctx, config_file)\00", align 1
@.str.36 = private unnamed_addr constant [39 x i8] c"OSSL_PROVIDER_available(ctx, \22legacy\22)\00", align 1
@.str.37 = private unnamed_addr constant [2 x i8] c"0\00", align 1
@.str.38 = private unnamed_addr constant [7 x i8] c"legacy\00", align 1

; Function Attrs: nounwind uwtable
define internal i32 @test_legacy_provider_unloaded() #0 {
  %1 = alloca ptr, align 8
  %2 = alloca i32, align 4
  call void @llvm.lifetime.start.p0(i64 8, ptr %1) #6
  store ptr null, ptr %1, align 8, !tbaa !13
  call void @llvm.lifetime.start.p0(i64 4, ptr %2) #6
  store i32 0, ptr %2, align 4, !tbaa !4
  %3 = call ptr @OSSL_LIB_CTX_new()
  store ptr %3, ptr %1, align 8, !tbaa !13
  %4 = load ptr, ptr %1, align 8, !tbaa !13
  %5 = call i32 @test_ptr(ptr noundef @.str.33, i32 noundef 130, ptr noundef @.str.34, ptr noundef %4)
  %6 = icmp ne i32 %5, 0
  br i1 %6, label %8, label %7

7:                                                ; preds = %0
  br label %24

8:                                                ; preds = %0
  %9 = load ptr, ptr %1, align 8, !tbaa !13
  %10 = load ptr, ptr @config_file, align 8, !tbaa !8
  %11 = call i32 @OSSL_LIB_CTX_load_config(ptr noundef %9, ptr noundef %10)
  %12 = icmp ne i32 %11, 0
  %13 = zext i1 %12 to i32
  %14 = call i32 @test_true(ptr noundef @.str.33, i32 noundef 133, ptr noundef @.str.35, i32 noundef %13)
  %15 = icmp ne i32 %14, 0
  br i1 %15, label %17, label %16

16:                                               ; preds = %8
  br label %24

17:                                               ; preds = %8
  %18 = load ptr, ptr %1, align 8, !tbaa !13
  %19 = call i32 @OSSL_PROVIDER_available(ptr noundef %18, ptr noundef @.str.38)
  %20 = call i32 @test_int_eq(ptr noundef @.str.33, i32 noundef 136, ptr noundef @.str.36, ptr noundef @.str.37, i32 noundef %19, i32 noundef 0)
  %21 = icmp ne i32 %20, 0
  br i1 %21, label %23, label %22

22:                                               ; preds = %17
  br label %24

23:                                               ; preds = %17
  store i32 1, ptr %2, align 4, !tbaa !4
  br label %24

24:                                               ; preds = %23, %22, %16, %7
  %25 = load ptr, ptr %1, align 8, !tbaa !13
  call void @OSSL_LIB_CTX_free(ptr noundef %25)
  %26 = load i32, ptr %2, align 4, !tbaa !4
  call void @llvm.lifetime.end.p0(i64 4, ptr %2) #6
  call void @llvm.lifetime.end.p0(i64 8, ptr %1) #6
  ret i32 %26
}