; Function Attrs: nounwind uwtable
define internal range(i32 0, 2) i32 @test_legacy_provider_unloaded() #1 {
  %1 = tail call ptr @OSSL_LIB_CTX_new() #7
  %2 = tail call i32 @test_ptr(ptr noundef nonnull @.str.33, i32 noundef 130, ptr noundef nonnull @.str.34, ptr noundef %1) #7
  %.not = icmp eq i32 %2, 0
  br i1 %.not, label %12, label %3

3:                                                ; preds = %0
  %4 = load ptr, ptr @config_file, align 8, !tbaa !6
  %5 = tail call i32 @OSSL_LIB_CTX_load_config(ptr noundef %1, ptr noundef %4) #7
  %6 = icmp ne i32 %5, 0
  %7 = zext i1 %6 to i32
  %8 = tail call i32 @test_true(ptr noundef nonnull @.str.33, i32 noundef 133, ptr noundef nonnull @.str.35, i32 noundef %7) #7
  %.not4 = icmp eq i32 %8, 0
  br i1 %.not4, label %12, label %9

9:                                                ; preds = %3
  %10 = tail call i32 @OSSL_PROVIDER_available(ptr noundef %1, ptr noundef nonnull @.str.38) #7
  %11 = tail call i32 @test_int_eq(ptr noundef nonnull @.str.33, i32 noundef 136, ptr noundef nonnull @.str.36, ptr noundef nonnull @.str.37, i32 noundef %10, i32 noundef 0) #7
  %.not5 = icmp ne i32 %11, 0
  %spec.select = zext i1 %.not5 to i32
  br label %12

12:                                               ; preds = %9, %3, %0
  %.0 = phi i32 [ 0, %3 ], [ 0, %0 ], [ %spec.select, %9 ]
  tail call void @OSSL_LIB_CTX_free(ptr noundef %1) #7
  ret i32 %.0
}